target datalayout = "e-m:e-p270:32:32-p271:32:32-p272:64:64-i64:64-i128:128-f80:128-n8:16:32:64-S128"
target triple = "x86_64-pc-linux-gnu"

%"class.llvm::StringRef" = type { ptr, i64 }
%"class.clang::SourceRange" = type { %"class.clang::SourceLocation", %"class.clang::SourceLocation" }
%"class.clang::SourceLocation" = type { i32 }
%"class.clang::PPCallbacks" = type { ptr }
%"class.clang::CharSourceRange" = type <{ %"class.clang::SourceRange", i8, [3 x i8] }>
%"struct.(anonymous namespace)::DepCollectorPPCallbacks" = type { %"class.clang::PPCallbacks", ptr, ptr }
%"class.clang::CustomizableOptional.759" = type { %"class.clang::optional_detail::OptionalStorage.760" }
%"class.clang::optional_detail::OptionalStorage.760" = type { %"class.clang::FileMgr::MapEntryOptionalStorage.761" }
%"class.clang::FileMgr::MapEntryOptionalStorage.761" = type { %"class.clang::FileEntryRef" }
%"class.clang::FileEntryRef" = type { ptr }

; Function Attrs: mustprogress nounwind uwtable
define linkonce_odr hidden noundef zeroext i1 @_ZNK5clang12FileEntryRef16hasOptionalValueEv(ptr noundef nonnull align 8 dereferenceable(8) %0) #0 comdat align 2 {
  %2 = alloca ptr, align 8
  store ptr %0, ptr %2, align 8
  %3 = load ptr, ptr %2, align 8
  %4 = getelementptr inbounds nuw %"class.clang::FileEntryRef", ptr %3, i32 0, i32 0
  %5 = load ptr, ptr %4, align 8
  %6 = icmp ne ptr %5, null
  ret i1 %6
}

; Function Attrs: mustprogress nounwind uwtable
define linkonce_odr hidden noundef zeroext i1 @_ZNK5clang7FileMgr23MapEntryOptionalStorageINS_12FileEntryRefEE9has_valueEv(ptr noundef nonnull align 8 dereferenceable(8) %0) #0 comdat align 2 {
  %2 = alloca ptr, align 8
  store ptr %0, ptr %2, align 8
  %3 = load ptr, ptr %2, align 8
  %4 = getelementptr inbounds nuw %"class.clang::FileMgr::MapEntryOptionalStorage.761", ptr %3, i32 0, i32 0
  %5 = call noundef zeroext i1 @_ZNK5clang12FileEntryRef16hasOptionalValueEv(ptr noundef nonnull align 8 dereferenceable(8) %4)
  ret i1 %5
}

; Function Attrs: mustprogress nounwind uwtable
define linkonce_odr hidden noundef zeroext i1 @_ZNK5clang20CustomizableOptionalINS_12FileEntryRefEE9has_valueEv(ptr noundef nonnull align 8 dereferenceable(8) %0) #0 comdat align 2 {
  %2 = alloca ptr, align 8
  store ptr %0, ptr %2, align 8
  %3 = load ptr, ptr %2, align 8
  %4 = getelementptr inbounds nuw %"class.clang::CustomizableOptional.759", ptr %3, i32 0, i32 0
  %5 = call noundef zeroext i1 @_ZNK5clang7FileMgr23MapEntryOptionalStorageINS_12FileEntryRefEE9has_valueEv(ptr noundef nonnull align 8 dereferenceable(8) %4)
  ret i1 %5
}

; Function Attrs: mustprogress nounwind uwtable
define linkonce_odr hidden noundef zeroext i1 @_ZNK5clang20CustomizableOptionalINS_12FileEntryRefEEcvbEv(ptr noundef nonnull align 8 dereferenceable(8) %0) #0 comdat align 2 {
  %2 = alloca ptr, align 8
  store ptr %0, ptr %2, align 8
  %3 = load ptr, ptr %2, align 8
  %4 = call noundef zeroext i1 @_ZNK5clang20CustomizableOptionalINS_12FileEntryRefEE9has_valueEv(ptr noundef nonnull align 8 dereferenceable(8) %3)
  ret i1 %4
}

; Function Attrs: mustprogress nounwind uwtable
define internal void @_ZN12_GLOBAL__N_123DepCollectorPPCallbacks18InclusionDirectiveEN5clang14SourceLocationERKNS1_5TokenEN4llvm9StringRefEbNS1_15CharSourceRangeENS1_20CustomizableOptionalINS1_12FileEntryRefEEES7_S7_PKNS1_6ModuleEbNS1_6SrcMgr18CharacteristicKindE(ptr noundef nonnull align 8 dereferenceable(24) %0, i32 %1, ptr noundef nonnull align 8 dereferenceable(20) %2, ptr %3, i64 %4, i1 noundef zeroext %5, ptr noundef byval(%"class.clang::CharSourceRange") align 8 %6, i64 %7, ptr noundef byval(%"class.llvm::StringRef") align 8 %8, ptr noundef byval(%"class.llvm::StringRef") align 8 %9, ptr noundef %10, i1 noundef zeroext %11, i32 noundef %12) unnamed_addr #0 align 2 {
  %14 = alloca %"class.clang::SourceLocation", align 4
  %15 = alloca %"class.llvm::StringRef", align 8
  %16 = alloca %"class.clang::CustomizableOptional.759", align 8
  %17 = alloca ptr, align 8
  %18 = alloca ptr, align 8
  %19 = alloca i8, align 1
  %20 = alloca ptr, align 8
  %21 = alloca i8, align 1
  %22 = alloca i32, align 4
  %23 = alloca %"class.llvm::StringRef", align 8
  %24 = getelementptr inbounds nuw %"class.clang::SourceLocation", ptr %14, i32 0, i32 0
  store i32 %1, ptr %24, align 4
  %25 = getelementptr inbounds nuw { ptr, i64 }, ptr %15, i32 0, i32 0
  store ptr %3, ptr %25, align 8
  %26 = getelementptr inbounds nuw { ptr, i64 }, ptr %15, i32 0, i32 1
  store i64 %4, ptr %26, align 8
  %27 = getelementptr inbounds nuw %"class.clang::CustomizableOptional.759", ptr %16, i32 0, i32 0
  %28 = getelementptr inbounds nuw %"class.clang::optional_detail::OptionalStorage.760", ptr %27, i32 0, i32 0
  %29 = getelementptr inbounds nuw %"class.clang::FileMgr::MapEntryOptionalStorage.761", ptr %28, i32 0, i32 0
  %30 = getelementptr inbounds nuw %"class.clang::FileEntryRef", ptr %29, i32 0, i32 0
  %31 = inttoptr i64 %7 to ptr
  store ptr %31, ptr %30, align 8
  store ptr %0, ptr %17, align 8
  store ptr %2, ptr %18, align 8
  %32 = zext i1 %5 to i8
  store i8 %32, ptr %19, align 1
  store ptr %10, ptr %20, align 8
  %33 = zext i1 %11 to i8
  store i8 %33, ptr %21, align 1
  store i32 %12, ptr %22, align 4
  %34 = load ptr, ptr %17, align 8
  %35 = call noundef zeroext i1 @_ZNK5clang20CustomizableOptionalINS_12FileEntryRefEEcvbEv(ptr noundef nonnull align 8 dereferenceable(8) %16)
  br i1 %35, label %46, label %36

36:                                               ; preds = %13
  %37 = getelementptr inbounds nuw %"struct.(anonymous namespace)::DepCollectorPPCallbacks", ptr %34, i32 0, i32 1
  %38 = load ptr, ptr %37, align 8
  call void @llvm.memcpy.p0.p0.i64(ptr align 8 %23, ptr align 8 %15, i64 16, i1 false)
  %39 = getelementptr inbounds nuw { ptr, i64 }, ptr %23, i32 0, i32 0
  %40 = load ptr, ptr %39, align 8
  %41 = getelementptr inbounds nuw { ptr, i64 }, ptr %23, i32 0, i32 1
  %42 = load i64, ptr %41, align 8
  %43 = load ptr, ptr %38, align 8
  %44 = getelementptr inbounds ptr, ptr %43, i64 7
  %45 = load ptr, ptr %44, align 8
  call void %45(ptr noundef nonnull align 8 dereferenceable(56) %38, ptr %40, i64 %42, i1 noundef zeroext false, i1 noundef zeroext false, i1 noundef zeroext false, i1 noundef zeroext true)
  br label %46

46:                                               ; preds = %36, %13
  ret void
}