; Function Attrs: mustprogress nounwind uwtable
define internal void @_ZN12_GLOBAL__N_123DepCollectorPPCallbacks18InclusionDirectiveEN5clang14SourceLocationERKNS1_5TokenEN4llvm9StringRefEbNS1_15CharSourceRangeENS1_20CustomizableOptionalINS1_12FileEntryRefEEES7_S7_PKNS1_6ModuleEbNS1_6SrcMgr18CharacteristicKindE(ptr nocapture noundef nonnull readonly align 8 dereferenceable(24) %0, i32 %1, ptr nocapture nonnull readnone align 8 %2, ptr %3, i64 %4, i1 zeroext %5, ptr nocapture noundef readnone byval(%"class.clang::CharSourceRange") align 8 %6, i64 %7, ptr nocapture noundef readnone byval(%"class.llvm::StringRef") align 8 %8, ptr nocapture noundef readnone byval(%"class.llvm::StringRef") align 8 %9, ptr nocapture readnone %10, i1 zeroext %11, i32 %12) unnamed_addr #0 align 2 {
  %.not = icmp eq i64 %7, 0
  br i1 %.not, label %14, label %20

14:                                               ; preds = %13
  %15 = getelementptr inbounds nuw i8, ptr %0, i64 8
  %16 = load ptr, ptr %15, align 8
  %17 = load ptr, ptr %16, align 8
  %18 = getelementptr inbounds i8, ptr %17, i64 56
  %19 = load ptr, ptr %18, align 8
  tail call void %19(ptr noundef nonnull align 8 dereferenceable(56) %16, ptr %3, i64 %4, i1 noundef zeroext false, i1 noundef zeroext false, i1 noundef zeroext false, i1 noundef zeroext true) #17
  br label %20

20:                                               ; preds = %14, %13
  ret void
}